target datalayout = "e-m:e-p270:32:32-p271:32:32-p272:64:64-i64:64-i128:128-f80:128-n8:16:32:64-S128"
target triple = "x86_64-pc-linux-gnu"

%struct.pg_compress_specification = type { i32, i32, i32, i32, i8, ptr }
%struct._archiveHandle = type { %struct.Archive, i32, ptr, ptr, i64, i64, i32, %struct.sqlparseInfo, i64, i32, ptr, i64, i64, i64, ptr, ptr, ptr, ptr, ptr, ptr, ptr, ptr, ptr, ptr, ptr, ptr, ptr, ptr, ptr, ptr, ptr, ptr, ptr, ptr, ptr, ptr, ptr, ptr, ptr, ptr, ptr, ptr, ptr, ptr, i32, i32, i8, i32, i8, i32, ptr, ptr, ptr, ptr, i32, i32, ptr, ptr, ptr, %struct.pg_compress_specification, i8, i32, i32, ptr, ptr, ptr, ptr, ptr, i32, ptr, i64, i64, i32, i32, i32, i32, ptr, ptr }
%struct.Archive = type { ptr, ptr, i32, ptr, i32, i8, i32, i32, i32, ptr, i32, i8, ptr, ptr, i8, i32, ptr }
%struct.sqlparseInfo = type { i32, i8, ptr }
%struct.__va_list_tag = type { i32, i32, ptr, ptr }

@.str.43 = private unnamed_addr constant [89 x i8] c"internal error -- WriteData cannot be called outside the context of a DataDumper routine\00", align 1

; Function Attrs: nounwind uwtable
define dso_local void @WriteData(ptr noundef %0, ptr noundef %1, i64 noundef %2) #0 {
  %4 = alloca ptr, align 8
  %5 = alloca ptr, align 8
  %6 = alloca i64, align 8
  %7 = alloca ptr, align 8
  store ptr %0, ptr %4, align 8
  store ptr %1, ptr %5, align 8
  store i64 %2, ptr %6, align 8
  call void @llvm.lifetime.start.p0(i64 8, ptr %7) #11
  %8 = load ptr, ptr %4, align 8
  store ptr %8, ptr %7, align 8
  %9 = load ptr, ptr %7, align 8
  %10 = getelementptr inbounds nuw %struct._archiveHandle, ptr %9, i32 0, i32 58
  %11 = load ptr, ptr %10, align 8
  %12 = icmp ne ptr %11, null
  br i1 %12, label %17, label %13

13:                                               ; preds = %3
  br label %14

14:                                               ; preds = %13
  call void (i32, i32, ptr, ...) @pg_log_generic(i32 noundef 4, i32 noundef 0, ptr noundef @.str.43)
  call void @exit_nicely(i32 noundef 1) #12
  unreachable

15:                                               ; No predecessors!
  br label %16

16:                                               ; preds = %15
  br label %17

17:                                               ; preds = %16, %3
  %18 = load ptr, ptr %7, align 8
  %19 = getelementptr inbounds nuw %struct._archiveHandle, ptr %18, i32 0, i32 16
  %20 = load ptr, ptr %19, align 8
  %21 = load ptr, ptr %7, align 8
  %22 = load ptr, ptr %5, align 8
  %23 = load i64, ptr %6, align 8
  call void %20(ptr noundef %21, ptr noundef %22, i64 noundef %23)
  call void @llvm.lifetime.end.p0(i64 8, ptr %7) #11
  ret void
}

; Function Attrs: nounwind uwtable
define dso_local i32 @archprintf(ptr noundef %0, ptr noundef %1, ...) #0 {
  %3 = alloca ptr, align 8
  %4 = alloca ptr, align 8
  %5 = alloca i32, align 4
  %6 = alloca ptr, align 8
  %7 = alloca i64, align 8
  %8 = alloca i64, align 8
  %9 = alloca [1 x %struct.__va_list_tag], align 16
  %10 = alloca i32, align 4
  store ptr %0, ptr %3, align 8
  store ptr %1, ptr %4, align 8
  call void @llvm.lifetime.start.p0(i64 4, ptr %5) #11
  %11 = call ptr @__errno_location() #13
  %12 = load i32, ptr %11, align 4
  store i32 %12, ptr %5, align 4
  call void @llvm.lifetime.start.p0(i64 8, ptr %6) #11
  call void @llvm.lifetime.start.p0(i64 8, ptr %7) #11
  store i64 128, ptr %7, align 8
  call void @llvm.lifetime.start.p0(i64 8, ptr %8) #11
  br label %13

13:                                               ; preds = %34, %2
  call void @llvm.lifetime.start.p0(i64 24, ptr %9) #11
  %14 = load i64, ptr %7, align 8
  %15 = call ptr @pg_malloc(i64 noundef %14)
  store ptr %15, ptr %6, align 8
  %16 = load i32, ptr %5, align 4
  %17 = call ptr @__errno_location() #13
  store i32 %16, ptr %17, align 4
  %18 = getelementptr inbounds [1 x %struct.__va_list_tag], ptr %9, i64 0, i64 0
  call void @llvm.va_start.p0(ptr %18)
  %19 = load ptr, ptr %6, align 8
  %20 = load i64, ptr %7, align 8
  %21 = load ptr, ptr %4, align 8
  %22 = getelementptr inbounds [1 x %struct.__va_list_tag], ptr %9, i64 0, i64 0
  %23 = call i64 @pvsnprintf(ptr noundef %19, i64 noundef %20, ptr noundef %21, ptr noundef %22)
  store i64 %23, ptr %8, align 8
  %24 = getelementptr inbounds [1 x %struct.__va_list_tag], ptr %9, i64 0, i64 0
  call void @llvm.va_end.p0(ptr %24)
  %25 = load i64, ptr %8, align 8
  %26 = load i64, ptr %7, align 8
  %27 = icmp ult i64 %25, %26
  br i1 %27, label %28, label %29

28:                                               ; preds = %13
  store i32 2, ptr %10, align 4
  br label %32

29:                                               ; preds = %13
  %30 = load ptr, ptr %6, align 8
  call void @free(ptr noundef %30) #11
  %31 = load i64, ptr %8, align 8
  store i64 %31, ptr %7, align 8
  store i32 0, ptr %10, align 4
  br label %32

32:                                               ; preds = %29, %28
  call void @llvm.lifetime.end.p0(i64 24, ptr %9) #11
  %33 = load i32, ptr %10, align 4
  switch i32 %33, label %42 [
    i32 0, label %34
    i32 2, label %35
  ]

34:                                               ; preds = %32
  br label %13

35:                                               ; preds = %32
  %36 = load ptr, ptr %3, align 8
  %37 = load ptr, ptr %6, align 8
  %38 = load i64, ptr %8, align 8
  call void @WriteData(ptr noundef %36, ptr noundef %37, i64 noundef %38)
  %39 = load ptr, ptr %6, align 8
  call void @free(ptr noundef %39) #11
  %40 = load i64, ptr %8, align 8
  %41 = trunc i64 %40 to i32
  store i32 1, ptr %10, align 4
  call void @llvm.lifetime.end.p0(i64 8, ptr %8) #11
  call void @llvm.lifetime.end.p0(i64 8, ptr %7) #11
  call void @llvm.lifetime.end.p0(i64 8, ptr %6) #11
  call void @llvm.lifetime.end.p0(i64 4, ptr %5) #11
  ret i32 %41

42:                                               ; preds = %32
  unreachable
}