; Function Attrs: nounwind uwtable
define dso_local i32 @archprintf(ptr noundef %0, ptr noundef %1, ...) local_unnamed_addr #0 {
  %3 = alloca [1 x %struct.__va_list_tag], align 16
  %4 = tail call ptr @__errno_location() #25
  %5 = load i32, ptr %4, align 4
  call void @llvm.lifetime.start.p0(i64 24, ptr nonnull %3) #22
  %6 = tail call ptr @pg_malloc(i64 noundef 128) #22
  store i32 %5, ptr %4, align 4
  call void @llvm.va_start.p0(ptr nonnull %3)
  %7 = call i64 @pvsnprintf(ptr noundef %6, i64 noundef 128, ptr noundef %1, ptr noundef nonnull %3) #22
  call void @llvm.va_end.p0(ptr nonnull %3)
  %8 = icmp ult i64 %7, 128
  br i1 %8, label %._crit_edge, label %.lr.ph

.lr.ph:                                           ; preds = %2, %.lr.ph
  %9 = phi i64 [ %12, %.lr.ph ], [ %7, %2 ]
  %10 = phi ptr [ %11, %.lr.ph ], [ %6, %2 ]
  call void @free(ptr noundef %10) #22
  call void @llvm.lifetime.end.p0(i64 24, ptr nonnull %3) #22
  call void @llvm.lifetime.start.p0(i64 24, ptr nonnull %3) #22
  %11 = call ptr @pg_malloc(i64 noundef %9) #22
  store i32 %5, ptr %4, align 4
  call void @llvm.va_start.p0(ptr nonnull %3)
  %12 = call i64 @pvsnprintf(ptr noundef %11, i64 noundef %9, ptr noundef %1, ptr noundef nonnull %3) #22
  call void @llvm.va_end.p0(ptr nonnull %3)
  %13 = icmp ult i64 %12, %9
  br i1 %13, label %._crit_edge, label %.lr.ph

._crit_edge:                                      ; preds = %.lr.ph, %2
  %.lcssa19 = phi ptr [ %6, %2 ], [ %11, %.lr.ph ]
  %.lcssa = phi i64 [ %7, %2 ], [ %12, %.lr.ph ]
  call void @llvm.lifetime.end.p0(i64 24, ptr nonnull %3) #22
  %14 = getelementptr inbounds nuw i8, ptr %0, i64 536
  %15 = load ptr, ptr %14, align 8
  %.not.i = icmp eq ptr %15, null
  br i1 %.not.i, label %16, label %WriteData.exit

16:                                               ; preds = %._crit_edge
  call void (i32, i32, ptr, ...) @pg_log_generic(i32 noundef 4, i32 noundef 0, ptr noundef nonnull @.str.43) #22
  call void @exit_nicely(i32 noundef 1) #23
  unreachable

WriteData.exit:                                   ; preds = %._crit_edge
  %17 = getelementptr inbounds nuw i8, ptr %0, i64 232
  %18 = load ptr, ptr %17, align 8
  call void %18(ptr noundef nonnull %0, ptr noundef %.lcssa19, i64 noundef %.lcssa) #22
  call void @free(ptr noundef %.lcssa19) #22
  %19 = trunc i64 %.lcssa to i32
  ret i32 %19
}